target datalayout = "e-m:e-p270:32:32-p271:32:32-p272:64:64-i64:64-i128:128-f80:128-n8:16:32:64-S128"
target triple = "x86_64-pc-linux-gnu"

%struct.expert_field = type { i32, i32 }
%struct._packet_info = type { ptr, ptr, i32, i32, %struct.nstime_t, %struct.nstime_t, %struct.nstime_t, i8, ptr, ptr, ptr, ptr, %struct._address, %struct._address, %struct._address, %struct._address, %struct._address, %struct._address, i32, ptr, i8, [3 x i8], %struct.anon, i32, i32, i32, i32, ptr, i8, ptr, ptr, i16, i16, i32, i32, i16, i32, i32, ptr, ptr, ptr, i8, i8, i16, i16, i16, i32, i16, i16, ptr, ptr, ptr, ptr, ptr, i32, i32 }
%struct.nstime_t = type { i64, i32 }
%struct._address = type { i32, i32, ptr, ptr }
%struct.anon = type { i8, [3 x i8] }

@hf_at_number = internal global i32 0, align 4
@hf_at_type = internal global i32 0, align 4
@hf_at_alpha = internal global i32 0, align 4
@hf_at_priority = internal global i32 0, align 4
@hf_clcc_id = internal global i32 0, align 4
@hf_clcc_dir = internal global i32 0, align 4
@hf_clcc_stat = internal global i32 0, align 4
@hf_clcc_mode = internal global i32 0, align 4
@hf_clcc_mpty = internal global i32 0, align 4
@ei_at_type = internal global %struct.expert_field zeroinitializer, align 4

; Function Attrs: alwaysinline nounwind
define internal ptr @memcpy.inline(ptr noalias %0, ptr noalias %1, i64 %2) #9 {
  %4 = alloca ptr, align 8
  %5 = alloca ptr, align 8
  %6 = alloca i64, align 8
  store ptr %0, ptr %4, align 8
  store ptr %1, ptr %5, align 8
  store i64 %2, ptr %6, align 8
  %7 = load ptr, ptr %4, align 8
  %8 = load ptr, ptr %5, align 8
  %9 = load i64, ptr %6, align 8
  %10 = load ptr, ptr %4, align 8
  %11 = call i64 @llvm.objectsize.i64.p0(ptr %10, i1 false, i1 true, i1 true)
  %12 = call ptr @__memcpy_chk(ptr noundef %7, ptr noundef %8, i64 noundef %9, i64 noundef %11) #12
  ret ptr %12
}

; Function Attrs: null_pointer_is_valid sspstrong uwtable
define internal i32 @get_uint_parameter(ptr noundef %0, ptr noundef %1, i32 noundef %2) #0 {
  %4 = alloca ptr, align 8
  %5 = alloca ptr, align 8
  %6 = alloca i32, align 4
  %7 = alloca i32, align 4
  %8 = alloca ptr, align 8
  store ptr %0, ptr %4, align 8
  store ptr %1, ptr %5, align 8
  store i32 %2, ptr %6, align 4
  call void @llvm.lifetime.start.p0(i64 4, ptr %7) #12
  call void @llvm.lifetime.start.p0(i64 8, ptr %8) #12
  %9 = load ptr, ptr %4, align 8
  %10 = load i32, ptr %6, align 4
  %11 = add i32 %10, 1
  %12 = sext i32 %11 to i64
  %13 = call noalias ptr @wmem_alloc(ptr noundef %9, i64 noundef %12) #13
  store ptr %13, ptr %8, align 8
  %14 = load ptr, ptr %8, align 8
  %15 = load ptr, ptr %5, align 8
  %16 = load i32, ptr %6, align 4
  %17 = sext i32 %16 to i64
  %18 = call ptr @memcpy.inline(ptr noundef %14, ptr noundef %15, i64 noundef %17) #12
  %19 = load ptr, ptr %8, align 8
  %20 = load i32, ptr %6, align 4
  %21 = sext i32 %20 to i64
  %22 = getelementptr i8, ptr %19, i64 %21
  store i8 0, ptr %22, align 1
  %23 = load ptr, ptr %8, align 8
  %24 = call i64 @g_ascii_strtoull(ptr noundef %23, ptr noundef null, i32 noundef 10)
  %25 = trunc i64 %24 to i32
  store i32 %25, ptr %7, align 4
  %26 = load i32, ptr %7, align 4
  call void @llvm.lifetime.end.p0(i64 8, ptr %8) #12
  call void @llvm.lifetime.end.p0(i64 4, ptr %7) #12
  ret i32 %26
}

; Function Attrs: null_pointer_is_valid sspstrong uwtable
define internal zeroext i1 @dissect_clcc_parameter(ptr noundef %0, ptr noundef %1, ptr noundef %2, i32 noundef %3, i32 noundef %4, i16 noundef zeroext %5, ptr noundef %6, i32 noundef %7, i32 noundef %8, ptr noundef %9, ptr noundef %10) #0 {
  %12 = alloca i1, align 1
  %13 = alloca ptr, align 8
  %14 = alloca ptr, align 8
  %15 = alloca ptr, align 8
  %16 = alloca i32, align 4
  %17 = alloca i32, align 4
  %18 = alloca i16, align 2
  %19 = alloca ptr, align 8
  %20 = alloca i32, align 4
  %21 = alloca i32, align 4
  %22 = alloca ptr, align 8
  %23 = alloca ptr, align 8
  %24 = alloca ptr, align 8
  %25 = alloca i32, align 4
  %26 = alloca i32, align 4
  store ptr %0, ptr %13, align 8
  store ptr %1, ptr %14, align 8
  store ptr %2, ptr %15, align 8
  store i32 %3, ptr %16, align 4
  store i32 %4, ptr %17, align 4
  store i16 %5, ptr %18, align 2
  store ptr %6, ptr %19, align 8
  store i32 %7, ptr %20, align 4
  store i32 %8, ptr %21, align 4
  store ptr %9, ptr %22, align 8
  store ptr %10, ptr %23, align 8
  call void @llvm.lifetime.start.p0(i64 8, ptr %24) #12
  call void @llvm.lifetime.start.p0(i64 4, ptr %25) #12
  %27 = load i32, ptr %17, align 4
  %28 = icmp eq i32 %27, 2
  br i1 %28, label %29, label %33

29:                                               ; preds = %11
  %30 = load i16, ptr %18, align 2
  %31 = zext i16 %30 to i32
  %32 = icmp eq i32 %31, 13
  br i1 %32, label %41, label %33

33:                                               ; preds = %29, %11
  %34 = load i32, ptr %17, align 4
  %35 = icmp eq i32 %34, 1
  br i1 %35, label %36, label %40

36:                                               ; preds = %33
  %37 = load i16, ptr %18, align 2
  %38 = zext i16 %37 to i32
  %39 = icmp eq i32 %38, 58
  br i1 %39, label %41, label %40

40:                                               ; preds = %36, %33
  store i1 false, ptr %12, align 1
  store i32 1, ptr %26, align 4
  br label %170

41:                                               ; preds = %36, %29
  %42 = load i32, ptr %20, align 4
  %43 = icmp ugt i32 %42, 8
  br i1 %43, label %44, label %45

44:                                               ; preds = %41
  store i1 false, ptr %12, align 1
  store i32 1, ptr %26, align 4
  br label %170

45:                                               ; preds = %41
  %46 = load i32, ptr %20, align 4
  switch i32 %46, label %169 [
    i32 0, label %47
    i32 1, label %61
    i32 2, label %75
    i32 3, label %89
    i32 4, label %103
    i32 5, label %117
    i32 6, label %124
    i32 7, label %148
    i32 8, label %155
  ]

47:                                               ; preds = %45
  %48 = load ptr, ptr %14, align 8
  %49 = getelementptr inbounds nuw %struct._packet_info, ptr %48, i32 0, i32 51
  %50 = load ptr, ptr %49, align 8
  %51 = load ptr, ptr %19, align 8
  %52 = load i32, ptr %21, align 4
  %53 = call i32 @get_uint_parameter(ptr noundef %50, ptr noundef %51, i32 noundef %52)
  store i32 %53, ptr %25, align 4
  %54 = load ptr, ptr %15, align 8
  %55 = load i32, ptr @hf_clcc_id, align 4
  %56 = load ptr, ptr %13, align 8
  %57 = load i32, ptr %16, align 4
  %58 = load i32, ptr %21, align 4
  %59 = load i32, ptr %25, align 4
  %60 = call ptr @proto_tree_add_uint(ptr noundef %54, i32 noundef %55, ptr noundef %56, i32 noundef %57, i32 noundef %58, i32 noundef %59)
  br label %169

61:                                               ; preds = %45
  %62 = load ptr, ptr %14, align 8
  %63 = getelementptr inbounds nuw %struct._packet_info, ptr %62, i32 0, i32 51
  %64 = load ptr, ptr %63, align 8
  %65 = load ptr, ptr %19, align 8
  %66 = load i32, ptr %21, align 4
  %67 = call i32 @get_uint_parameter(ptr noundef %64, ptr noundef %65, i32 noundef %66)
  store i32 %67, ptr %25, align 4
  %68 = load ptr, ptr %15, align 8
  %69 = load i32, ptr @hf_clcc_dir, align 4
  %70 = load ptr, ptr %13, align 8
  %71 = load i32, ptr %16, align 4
  %72 = load i32, ptr %21, align 4
  %73 = load i32, ptr %25, align 4
  %74 = call ptr @proto_tree_add_uint(ptr noundef %68, i32 noundef %69, ptr noundef %70, i32 noundef %71, i32 noundef %72, i32 noundef %73)
  br label %169

75:                                               ; preds = %45
  %76 = load ptr, ptr %14, align 8
  %77 = getelementptr inbounds nuw %struct._packet_info, ptr %76, i32 0, i32 51
  %78 = load ptr, ptr %77, align 8
  %79 = load ptr, ptr %19, align 8
  %80 = load i32, ptr %21, align 4
  %81 = call i32 @get_uint_parameter(ptr noundef %78, ptr noundef %79, i32 noundef %80)
  store i32 %81, ptr %25, align 4
  %82 = load ptr, ptr %15, align 8
  %83 = load i32, ptr @hf_clcc_stat, align 4
  %84 = load ptr, ptr %13, align 8
  %85 = load i32, ptr %16, align 4
  %86 = load i32, ptr %21, align 4
  %87 = load i32, ptr %25, align 4
  %88 = call ptr @proto_tree_add_uint(ptr noundef %82, i32 noundef %83, ptr noundef %84, i32 noundef %85, i32 noundef %86, i32 noundef %87)
  br label %169

89:                                               ; preds = %45
  %90 = load ptr, ptr %14, align 8
  %91 = getelementptr inbounds nuw %struct._packet_info, ptr %90, i32 0, i32 51
  %92 = load ptr, ptr %91, align 8
  %93 = load ptr, ptr %19, align 8
  %94 = load i32, ptr %21, align 4
  %95 = call i32 @get_uint_parameter(ptr noundef %92, ptr noundef %93, i32 noundef %94)
  store i32 %95, ptr %25, align 4
  %96 = load ptr, ptr %15, align 8
  %97 = load i32, ptr @hf_clcc_mode, align 4
  %98 = load ptr, ptr %13, align 8
  %99 = load i32, ptr %16, align 4
  %100 = load i32, ptr %21, align 4
  %101 = load i32, ptr %25, align 4
  %102 = call ptr @proto_tree_add_uint(ptr noundef %96, i32 noundef %97, ptr noundef %98, i32 noundef %99, i32 noundef %100, i32 noundef %101)
  br label %169

103:                                              ; preds = %45
  %104 = load ptr, ptr %14, align 8
  %105 = getelementptr inbounds nuw %struct._packet_info, ptr %104, i32 0, i32 51
  %106 = load ptr, ptr %105, align 8
  %107 = load ptr, ptr %19, align 8
  %108 = load i32, ptr %21, align 4
  %109 = call i32 @get_uint_parameter(ptr noundef %106, ptr noundef %107, i32 noundef %108)
  store i32 %109, ptr %25, align 4
  %110 = load ptr, ptr %15, align 8
  %111 = load i32, ptr @hf_clcc_mpty, align 4
  %112 = load ptr, ptr %13, align 8
  %113 = load i32, ptr %16, align 4
  %114 = load i32, ptr %21, align 4
  %115 = load i32, ptr %25, align 4
  %116 = call ptr @proto_tree_add_uint(ptr noundef %110, i32 noundef %111, ptr noundef %112, i32 noundef %113, i32 noundef %114, i32 noundef %115)
  br label %169

117:                                              ; preds = %45
  %118 = load ptr, ptr %15, align 8
  %119 = load i32, ptr @hf_at_number, align 4
  %120 = load ptr, ptr %13, align 8
  %121 = load i32, ptr %16, align 4
  %122 = load i32, ptr %21, align 4
  %123 = call ptr @proto_tree_add_item(ptr noundef %118, i32 noundef %119, ptr noundef %120, i32 noundef %121, i32 noundef %122, i32 noundef 0)
  br label %169

124:                                              ; preds = %45
  %125 = load ptr, ptr %14, align 8
  %126 = getelementptr inbounds nuw %struct._packet_info, ptr %125, i32 0, i32 51
  %127 = load ptr, ptr %126, align 8
  %128 = load ptr, ptr %19, align 8
  %129 = load i32, ptr %21, align 4
  %130 = call i32 @get_uint_parameter(ptr noundef %127, ptr noundef %128, i32 noundef %129)
  store i32 %130, ptr %25, align 4
  %131 = load ptr, ptr %15, align 8
  %132 = load i32, ptr @hf_at_type, align 4
  %133 = load ptr, ptr %13, align 8
  %134 = load i32, ptr %16, align 4
  %135 = load i32, ptr %21, align 4
  %136 = load i32, ptr %25, align 4
  %137 = call ptr @proto_tree_add_uint(ptr noundef %131, i32 noundef %132, ptr noundef %133, i32 noundef %134, i32 noundef %135, i32 noundef %136)
  store ptr %137, ptr %24, align 8
  %138 = load i32, ptr %25, align 4
  %139 = icmp ult i32 %138, 128
  br i1 %139, label %143, label %140

140:                                              ; preds = %124
  %141 = load i32, ptr %25, align 4
  %142 = icmp ugt i32 %141, 175
  br i1 %142, label %143, label %147

143:                                              ; preds = %140, %124
  %144 = load ptr, ptr %14, align 8
  %145 = load ptr, ptr %24, align 8
  %146 = call ptr @expert_add_info(ptr noundef %144, ptr noundef %145, ptr noundef @ei_at_type)
  br label %147

147:                                              ; preds = %143, %140
  br label %169

148:                                              ; preds = %45
  %149 = load ptr, ptr %15, align 8
  %150 = load i32, ptr @hf_at_alpha, align 4
  %151 = load ptr, ptr %13, align 8
  %152 = load i32, ptr %16, align 4
  %153 = load i32, ptr %21, align 4
  %154 = call ptr @proto_tree_add_item(ptr noundef %149, i32 noundef %150, ptr noundef %151, i32 noundef %152, i32 noundef %153, i32 noundef 0)
  br label %169

155:                                              ; preds = %45
  %156 = load ptr, ptr %14, align 8
  %157 = getelementptr inbounds nuw %struct._packet_info, ptr %156, i32 0, i32 51
  %158 = load ptr, ptr %157, align 8
  %159 = load ptr, ptr %19, align 8
  %160 = load i32, ptr %21, align 4
  %161 = call i32 @get_uint_parameter(ptr noundef %158, ptr noundef %159, i32 noundef %160)
  store i32 %161, ptr %25, align 4
  %162 = load ptr, ptr %15, align 8
  %163 = load i32, ptr @hf_at_priority, align 4
  %164 = load ptr, ptr %13, align 8
  %165 = load i32, ptr %16, align 4
  %166 = load i32, ptr %21, align 4
  %167 = load i32, ptr %25, align 4
  %168 = call ptr @proto_tree_add_uint(ptr noundef %162, i32 noundef %163, ptr noundef %164, i32 noundef %165, i32 noundef %166, i32 noundef %167)
  br label %169

169:                                              ; preds = %45, %155, %148, %147, %117, %103, %89, %75, %61, %47
  store i1 true, ptr %12, align 1
  store i32 1, ptr %26, align 4
  br label %170

170:                                              ; preds = %169, %44, %40
  call void @llvm.lifetime.end.p0(i64 4, ptr %25) #12
  call void @llvm.lifetime.end.p0(i64 8, ptr %24) #12
  %171 = load i1, ptr %12, align 1
  ret i1 %171
}