; Function Attrs: null_pointer_is_valid sspstrong uwtable
define internal noundef zeroext i1 @dissect_clcc_parameter(ptr noundef %0, ptr noundef %1, ptr noundef %2, i32 noundef %3, i32 noundef %4, i16 noundef zeroext %5, ptr noundef readonly captures(none) %6, i32 noundef %7, i32 noundef %8, ptr readnone captures(none) %9, ptr readnone captures(none) %10) #0 {
  %12 = icmp eq i32 %4, 2
  %13 = icmp eq i16 %5, 13
  %or.cond = and i1 %12, %13
  br i1 %or.cond, label %18, label %14

14:                                               ; preds = %11
  %15 = icmp ne i32 %4, 1
  %16 = icmp ne i16 %5, 58
  %or.cond5.not84 = or i1 %15, %16
  %17 = icmp ugt i32 %7, 8
  %or.cond82 = or i1 %or.cond5.not84, %17
  br i1 %or.cond82, label %127, label %19

18:                                               ; preds = %11
  %.old = icmp ugt i32 %7, 8
  br i1 %.old, label %127, label %19

19:                                               ; preds = %14, %18
  switch i32 %7, label %default.unreachable [
    i32 0, label %20
    i32 1, label %34
    i32 2, label %48
    i32 3, label %62
    i32 4, label %76
    i32 5, label %90
    i32 6, label %93
    i32 7, label %110
    i32 8, label %113
  ]

20:                                               ; preds = %19
  %21 = getelementptr inbounds nuw i8, ptr %1, i64 408
  %22 = load ptr, ptr %21, align 8
  %23 = add i32 %8, 1
  %24 = sext i32 %23 to i64
  %25 = tail call noalias ptr @wmem_alloc(ptr noundef %22, i64 noundef %24) #12
  %26 = sext i32 %8 to i64
  %27 = icmp ne i32 %23, -1
  tail call void @llvm.assume(i1 %27)
  %28 = tail call ptr @__memcpy_chk(ptr noundef %25, ptr noundef readonly %6, i64 noundef range(i64 -2147483648, 2147483648) %26, i64 noundef %24) #13, !alias.scope !34
  %29 = getelementptr i8, ptr %25, i64 %26
  store i8 0, ptr %29, align 1
  %30 = tail call i64 @g_ascii_strtoull(ptr noundef %25, ptr noundef null, i32 noundef 10)
  %31 = trunc i64 %30 to i32
  %32 = load i32, ptr @hf_clcc_id, align 4
  %33 = tail call ptr @proto_tree_add_uint(ptr noundef %2, i32 noundef %32, ptr noundef %0, i32 noundef %3, i32 noundef %8, i32 noundef %31)
  br label %127

34:                                               ; preds = %19
  %35 = getelementptr inbounds nuw i8, ptr %1, i64 408
  %36 = load ptr, ptr %35, align 8
  %37 = add i32 %8, 1
  %38 = sext i32 %37 to i64
  %39 = tail call noalias ptr @wmem_alloc(ptr noundef %36, i64 noundef %38) #12
  %40 = sext i32 %8 to i64
  %41 = icmp ne i32 %37, -1
  tail call void @llvm.assume(i1 %41)
  %42 = tail call ptr @__memcpy_chk(ptr noundef %39, ptr noundef readonly %6, i64 noundef range(i64 -2147483648, 2147483648) %40, i64 noundef %38) #13, !alias.scope !38
  %43 = getelementptr i8, ptr %39, i64 %40
  store i8 0, ptr %43, align 1
  %44 = tail call i64 @g_ascii_strtoull(ptr noundef %39, ptr noundef null, i32 noundef 10)
  %45 = trunc i64 %44 to i32
  %46 = load i32, ptr @hf_clcc_dir, align 4
  %47 = tail call ptr @proto_tree_add_uint(ptr noundef %2, i32 noundef %46, ptr noundef %0, i32 noundef %3, i32 noundef %8, i32 noundef %45)
  br label %127

48:                                               ; preds = %19
  %49 = getelementptr inbounds nuw i8, ptr %1, i64 408
  %50 = load ptr, ptr %49, align 8
  %51 = add i32 %8, 1
  %52 = sext i32 %51 to i64
  %53 = tail call noalias ptr @wmem_alloc(ptr noundef %50, i64 noundef %52) #12
  %54 = sext i32 %8 to i64
  %55 = icmp ne i32 %51, -1
  tail call void @llvm.assume(i1 %55)
  %56 = tail call ptr @__memcpy_chk(ptr noundef %53, ptr noundef readonly %6, i64 noundef range(i64 -2147483648, 2147483648) %54, i64 noundef %52) #13, !alias.scope !42
  %57 = getelementptr i8, ptr %53, i64 %54
  store i8 0, ptr %57, align 1
  %58 = tail call i64 @g_ascii_strtoull(ptr noundef %53, ptr noundef null, i32 noundef 10)
  %59 = trunc i64 %58 to i32
  %60 = load i32, ptr @hf_clcc_stat, align 4
  %61 = tail call ptr @proto_tree_add_uint(ptr noundef %2, i32 noundef %60, ptr noundef %0, i32 noundef %3, i32 noundef %8, i32 noundef %59)
  br label %127

62:                                               ; preds = %19
  %63 = getelementptr inbounds nuw i8, ptr %1, i64 408
  %64 = load ptr, ptr %63, align 8
  %65 = add i32 %8, 1
  %66 = sext i32 %65 to i64
  %67 = tail call noalias ptr @wmem_alloc(ptr noundef %64, i64 noundef %66) #12
  %68 = sext i32 %8 to i64
  %69 = icmp ne i32 %65, -1
  tail call void @llvm.assume(i1 %69)
  %70 = tail call ptr @__memcpy_chk(ptr noundef %67, ptr noundef readonly %6, i64 noundef range(i64 -2147483648, 2147483648) %68, i64 noundef %66) #13, !alias.scope !46
  %71 = getelementptr i8, ptr %67, i64 %68
  store i8 0, ptr %71, align 1
  %72 = tail call i64 @g_ascii_strtoull(ptr noundef %67, ptr noundef null, i32 noundef 10)
  %73 = trunc i64 %72 to i32
  %74 = load i32, ptr @hf_clcc_mode, align 4
  %75 = tail call ptr @proto_tree_add_uint(ptr noundef %2, i32 noundef %74, ptr noundef %0, i32 noundef %3, i32 noundef %8, i32 noundef %73)
  br label %127

76:                                               ; preds = %19
  %77 = getelementptr inbounds nuw i8, ptr %1, i64 408
  %78 = load ptr, ptr %77, align 8
  %79 = add i32 %8, 1
  %80 = sext i32 %79 to i64
  %81 = tail call noalias ptr @wmem_alloc(ptr noundef %78, i64 noundef %80) #12
  %82 = sext i32 %8 to i64
  %83 = icmp ne i32 %79, -1
  tail call void @llvm.assume(i1 %83)
  %84 = tail call ptr @__memcpy_chk(ptr noundef %81, ptr noundef readonly %6, i64 noundef range(i64 -2147483648, 2147483648) %82, i64 noundef %80) #13, !alias.scope !50
  %85 = getelementptr i8, ptr %81, i64 %82
  store i8 0, ptr %85, align 1
  %86 = tail call i64 @g_ascii_strtoull(ptr noundef %81, ptr noundef null, i32 noundef 10)
  %87 = trunc i64 %86 to i32
  %88 = load i32, ptr @hf_clcc_mpty, align 4
  %89 = tail call ptr @proto_tree_add_uint(ptr noundef %2, i32 noundef %88, ptr noundef %0, i32 noundef %3, i32 noundef %8, i32 noundef %87)
  br label %127

90:                                               ; preds = %19
  %91 = load i32, ptr @hf_at_number, align 4
  %92 = tail call ptr @proto_tree_add_item(ptr noundef %2, i32 noundef %91, ptr noundef %0, i32 noundef %3, i32 noundef %8, i32 noundef 0)
  br label %127

93:                                               ; preds = %19
  %94 = getelementptr inbounds nuw i8, ptr %1, i64 408
  %95 = load ptr, ptr %94, align 8
  %96 = add i32 %8, 1
  %97 = sext i32 %96 to i64
  %98 = tail call noalias ptr @wmem_alloc(ptr noundef %95, i64 noundef %97) #12
  %99 = sext i32 %8 to i64
  %100 = icmp ne i32 %96, -1
  tail call void @llvm.assume(i1 %100)
  %101 = tail call ptr @__memcpy_chk(ptr noundef %98, ptr noundef readonly %6, i64 noundef range(i64 -2147483648, 2147483648) %99, i64 noundef %97) #13, !alias.scope !54
  %102 = getelementptr i8, ptr %98, i64 %99
  store i8 0, ptr %102, align 1
  %103 = tail call i64 @g_ascii_strtoull(ptr noundef %98, ptr noundef null, i32 noundef 10)
  %104 = trunc i64 %103 to i32
  %105 = load i32, ptr @hf_at_type, align 4
  %106 = tail call ptr @proto_tree_add_uint(ptr noundef %2, i32 noundef %105, ptr noundef %0, i32 noundef %3, i32 noundef %8, i32 noundef %104)
  %107 = add i32 %104, -176
  %or.cond7 = icmp ult i32 %107, -48
  br i1 %or.cond7, label %108, label %127

108:                                              ; preds = %93
  %109 = tail call ptr @expert_add_info(ptr noundef %1, ptr noundef %106, ptr noundef nonnull @ei_at_type)
  br label %127

110:                                              ; preds = %19
  %111 = load i32, ptr @hf_at_alpha, align 4
  %112 = tail call ptr @proto_tree_add_item(ptr noundef %2, i32 noundef %111, ptr noundef %0, i32 noundef %3, i32 noundef %8, i32 noundef 0)
  br label %127

113:                                              ; preds = %19
  %114 = getelementptr inbounds nuw i8, ptr %1, i64 408
  %115 = load ptr, ptr %114, align 8
  %116 = add i32 %8, 1
  %117 = sext i32 %116 to i64
  %118 = tail call noalias ptr @wmem_alloc(ptr noundef %115, i64 noundef %117) #12
  %119 = sext i32 %8 to i64
  %120 = icmp ne i32 %116, -1
  tail call void @llvm.assume(i1 %120)
  %121 = tail call ptr @__memcpy_chk(ptr noundef %118, ptr noundef readonly %6, i64 noundef range(i64 -2147483648, 2147483648) %119, i64 noundef %117) #13, !alias.scope !58
  %122 = getelementptr i8, ptr %118, i64 %119
  store i8 0, ptr %122, align 1
  %123 = tail call i64 @g_ascii_strtoull(ptr noundef %118, ptr noundef null, i32 noundef 10)
  %124 = trunc i64 %123 to i32
  %125 = load i32, ptr @hf_at_priority, align 4
  %126 = tail call ptr @proto_tree_add_uint(ptr noundef %2, i32 noundef %125, ptr noundef %0, i32 noundef %3, i32 noundef %8, i32 noundef %124)
  br label %127

default.unreachable:                              ; preds = %19
  unreachable

127:                                              ; preds = %20, %34, %48, %62, %76, %90, %110, %113, %93, %108, %18, %14
  %.0 = phi i1 [ false, %14 ], [ false, %18 ], [ true, %108 ], [ true, %93 ], [ true, %113 ], [ true, %110 ], [ true, %90 ], [ true, %76 ], [ true, %62 ], [ true, %48 ], [ true, %34 ], [ true, %20 ]
  ret i1 %.0
}